; Function Attrs: mustprogress uwtable
define dso_local noundef zeroext i1 @_ZNK6Effect27sibling_union_field_is_readEPK8Variable(ptr noundef nonnull readonly align 8 captures(none) dereferenceable(74) %0, ptr noundef %1) local_unnamed_addr #5 align 2 {
  %3 = load ptr, ptr %1, align 8, !tbaa !77
  %4 = getelementptr inbounds nuw i8, ptr %3, i64 64
  %5 = load ptr, ptr %4, align 8
  %6 = tail call noundef ptr %5(ptr noundef nonnull align 8 dereferenceable(200) %1)
  %7 = tail call noundef ptr @_ZNK8Variable19get_container_unionEv(ptr noundef nonnull align 8 dereferenceable(200) %6)
  %.not = icmp eq ptr %7, null
  br i1 %.not, label %.critedge, label %.preheader

.preheader:                                       ; preds = %2
  %8 = getelementptr inbounds nuw i8, ptr %0, i64 8
  %9 = load ptr, ptr %8, align 8, !tbaa !16
  %10 = load ptr, ptr %0, align 8, !tbaa !17
  %.not1617.not = icmp eq ptr %9, %10
  br i1 %.not1617.not, label %.critedge, label %.lr.ph

11:                                               ; preds = %.lr.ph
  %12 = add nuw i64 %.01318, 1
  %13 = load ptr, ptr %8, align 8, !tbaa !16
  %14 = load ptr, ptr %0, align 8, !tbaa !17
  %15 = ptrtoint ptr %13 to i64
  %16 = ptrtoint ptr %14 to i64
  %17 = sub i64 %15, %16
  %18 = ashr exact i64 %17, 3
  %.not16 = icmp ult i64 %12, %18
  br i1 %.not16, label %.lr.ph, label %.critedge, !llvm.loop !118

.lr.ph:                                           ; preds = %.preheader, %11
  %19 = phi ptr [ %14, %11 ], [ %10, %.preheader ]
  %.01318 = phi i64 [ %12, %11 ], [ 0, %.preheader ]
  %20 = getelementptr inbounds nuw ptr, ptr %19, i64 %.01318
  %21 = load ptr, ptr %20, align 8, !tbaa !23
  %22 = load ptr, ptr %21, align 8, !tbaa !77
  %23 = getelementptr inbounds nuw i8, ptr %22, i64 64
  %24 = load ptr, ptr %23, align 8
  %25 = tail call noundef ptr %24(ptr noundef nonnull align 8 dereferenceable(200) %21)
  %26 = tail call noundef ptr @_ZNK8Variable19get_container_unionEv(ptr noundef nonnull align 8 dereferenceable(200) %25)
  %.not15 = icmp eq ptr %7, %26
  br i1 %.not15, label %.critedge, label %11

.critedge:                                        ; preds = %.lr.ph, %11, %.preheader, %2
  %.3 = phi i1 [ false, %2 ], [ false, %.preheader ], [ %.not15, %11 ], [ %.not15, %.lr.ph ]
  ret i1 %.3
}